target datalayout = "e-m:e-p270:32:32-p271:32:32-p272:64:64-i64:64-i128:128-f80:128-n8:16:32:64-S128"
target triple = "x86_64-pc-linux-gnu"

; Function Attrs: nounwind uwtable
define internal void @synth_filter_float_64(ptr noundef %0, ptr noundef %1, ptr noundef %2, ptr noundef %3, ptr noundef %4, ptr noundef %5, ptr noundef %6, float noundef %7, ptr noundef %8) #1 {
  %10 = alloca ptr, align 8
  %11 = alloca ptr, align 8
  %12 = alloca ptr, align 8
  %13 = alloca ptr, align 8
  %14 = alloca ptr, align 8
  %15 = alloca ptr, align 8
  %16 = alloca ptr, align 8
  %17 = alloca float, align 4
  %18 = alloca ptr, align 8
  %19 = alloca ptr, align 8
  %20 = alloca i32, align 4
  %21 = alloca i32, align 4
  %22 = alloca float, align 4
  %23 = alloca float, align 4
  %24 = alloca float, align 4
  %25 = alloca float, align 4
  store ptr %0, ptr %10, align 8, !tbaa !14
  store ptr %1, ptr %11, align 8, !tbaa !16
  store ptr %2, ptr %12, align 8, !tbaa !18
  store ptr %3, ptr %13, align 8, !tbaa !16
  store ptr %4, ptr %14, align 8, !tbaa !16
  store ptr %5, ptr %15, align 8, !tbaa !16
  store ptr %6, ptr %16, align 8, !tbaa !16
  store float %7, ptr %17, align 4, !tbaa !20
  store ptr %8, ptr %18, align 8, !tbaa !22
  call void @llvm.lifetime.start.p0(i64 8, ptr %19) #6
  %26 = load ptr, ptr %11, align 8, !tbaa !16
  %27 = load ptr, ptr %12, align 8, !tbaa !18
  %28 = load i32, ptr %27, align 4, !tbaa !23
  %29 = sext i32 %28 to i64
  %30 = getelementptr inbounds float, ptr %26, i64 %29
  store ptr %30, ptr %19, align 8, !tbaa !16
  call void @llvm.lifetime.start.p0(i64 4, ptr %20) #6
  call void @llvm.lifetime.start.p0(i64 4, ptr %21) #6
  %31 = load ptr, ptr %18, align 8, !tbaa !22
  %32 = load ptr, ptr %10, align 8, !tbaa !14
  %33 = load ptr, ptr %19, align 8, !tbaa !16
  %34 = load ptr, ptr %16, align 8, !tbaa !16
  call void %31(ptr noundef %32, ptr noundef %33, ptr noundef %34, i64 noundef 4)
  store i32 0, ptr %20, align 4, !tbaa !23
  br label %35

35:                                               ; preds = %241, %9
  %36 = load i32, ptr %20, align 4, !tbaa !23
  %37 = icmp slt i32 %36, 32
  br i1 %37, label %38, label %244

38:                                               ; preds = %35
  call void @llvm.lifetime.start.p0(i64 4, ptr %22) #6
  %39 = load ptr, ptr %13, align 8, !tbaa !16
  %40 = load i32, ptr %20, align 4, !tbaa !23
  %41 = sext i32 %40 to i64
  %42 = getelementptr inbounds float, ptr %39, i64 %41
  %43 = load float, ptr %42, align 4, !tbaa !20
  store float %43, ptr %22, align 4, !tbaa !20
  call void @llvm.lifetime.start.p0(i64 4, ptr %23) #6
  %44 = load ptr, ptr %13, align 8, !tbaa !16
  %45 = load i32, ptr %20, align 4, !tbaa !23
  %46 = add nsw i32 %45, 32
  %47 = sext i32 %46 to i64
  %48 = getelementptr inbounds float, ptr %44, i64 %47
  %49 = load float, ptr %48, align 4, !tbaa !20
  store float %49, ptr %23, align 4, !tbaa !20
  call void @llvm.lifetime.start.p0(i64 4, ptr %24) #6
  store float 0.000000e+00, ptr %24, align 4, !tbaa !20
  call void @llvm.lifetime.start.p0(i64 4, ptr %25) #6
  store float 0.000000e+00, ptr %25, align 4, !tbaa !20
  store i32 0, ptr %21, align 4, !tbaa !23
  br label %50

50:                                               ; preds = %128, %38
  %51 = load i32, ptr %21, align 4, !tbaa !23
  %52 = load ptr, ptr %12, align 8, !tbaa !18
  %53 = load i32, ptr %52, align 4, !tbaa !23
  %54 = sub nsw i32 1024, %53
  %55 = icmp slt i32 %51, %54
  br i1 %55, label %56, label %131

56:                                               ; preds = %50
  %57 = load ptr, ptr %14, align 8, !tbaa !16
  %58 = load i32, ptr %20, align 4, !tbaa !23
  %59 = load i32, ptr %21, align 4, !tbaa !23
  %60 = add nsw i32 %58, %59
  %61 = sext i32 %60 to i64
  %62 = getelementptr inbounds float, ptr %57, i64 %61
  %63 = load float, ptr %62, align 4, !tbaa !20
  %64 = load ptr, ptr %19, align 8, !tbaa !16
  %65 = load i32, ptr %20, align 4, !tbaa !23
  %66 = sub nsw i32 31, %65
  %67 = load i32, ptr %21, align 4, !tbaa !23
  %68 = add nsw i32 %66, %67
  %69 = sext i32 %68 to i64
  %70 = getelementptr inbounds float, ptr %64, i64 %69
  %71 = load float, ptr %70, align 4, !tbaa !20
  %72 = fneg nsz float %71
  %73 = load float, ptr %22, align 4, !tbaa !20
  %74 = call nsz float @llvm.fmuladd.f32(float %63, float %72, float %73)
  store float %74, ptr %22, align 4, !tbaa !20
  %75 = load ptr, ptr %14, align 8, !tbaa !16
  %76 = load i32, ptr %20, align 4, !tbaa !23
  %77 = load i32, ptr %21, align 4, !tbaa !23
  %78 = add nsw i32 %76, %77
  %79 = add nsw i32 %78, 32
  %80 = sext i32 %79 to i64
  %81 = getelementptr inbounds float, ptr %75, i64 %80
  %82 = load float, ptr %81, align 4, !tbaa !20
  %83 = load ptr, ptr %19, align 8, !tbaa !16
  %84 = load i32, ptr %20, align 4, !tbaa !23
  %85 = load i32, ptr %21, align 4, !tbaa !23
  %86 = add nsw i32 %84, %85
  %87 = sext i32 %86 to i64
  %88 = getelementptr inbounds float, ptr %83, i64 %87
  %89 = load float, ptr %88, align 4, !tbaa !20
  %90 = load float, ptr %23, align 4, !tbaa !20
  %91 = call nsz float @llvm.fmuladd.f32(float %82, float %89, float %90)
  store float %91, ptr %23, align 4, !tbaa !20
  %92 = load ptr, ptr %14, align 8, !tbaa !16
  %93 = load i32, ptr %20, align 4, !tbaa !23
  %94 = load i32, ptr %21, align 4, !tbaa !23
  %95 = add nsw i32 %93, %94
  %96 = add nsw i32 %95, 64
  %97 = sext i32 %96 to i64
  %98 = getelementptr inbounds float, ptr %92, i64 %97
  %99 = load float, ptr %98, align 4, !tbaa !20
  %100 = load ptr, ptr %19, align 8, !tbaa !16
  %101 = load i32, ptr %20, align 4, !tbaa !23
  %102 = add nsw i32 32, %101
  %103 = load i32, ptr %21, align 4, !tbaa !23
  %104 = add nsw i32 %102, %103
  %105 = sext i32 %104 to i64
  %106 = getelementptr inbounds float, ptr %100, i64 %105
  %107 = load float, ptr %106, align 4, !tbaa !20
  %108 = load float, ptr %24, align 4, !tbaa !20
  %109 = call nsz float @llvm.fmuladd.f32(float %99, float %107, float %108)
  store float %109, ptr %24, align 4, !tbaa !20
  %110 = load ptr, ptr %14, align 8, !tbaa !16
  %111 = load i32, ptr %20, align 4, !tbaa !23
  %112 = load i32, ptr %21, align 4, !tbaa !23
  %113 = add nsw i32 %111, %112
  %114 = add nsw i32 %113, 96
  %115 = sext i32 %114 to i64
  %116 = getelementptr inbounds float, ptr %110, i64 %115
  %117 = load float, ptr %116, align 4, !tbaa !20
  %118 = load ptr, ptr %19, align 8, !tbaa !16
  %119 = load i32, ptr %20, align 4, !tbaa !23
  %120 = sub nsw i32 63, %119
  %121 = load i32, ptr %21, align 4, !tbaa !23
  %122 = add nsw i32 %120, %121
  %123 = sext i32 %122 to i64
  %124 = getelementptr inbounds float, ptr %118, i64 %123
  %125 = load float, ptr %124, align 4, !tbaa !20
  %126 = load float, ptr %25, align 4, !tbaa !20
  %127 = call nsz float @llvm.fmuladd.f32(float %117, float %125, float %126)
  store float %127, ptr %25, align 4, !tbaa !20
  br label %128

128:                                              ; preds = %56
  %129 = load i32, ptr %21, align 4, !tbaa !23
  %130 = add nsw i32 %129, 128
  store i32 %130, ptr %21, align 4, !tbaa !23
  br label %50, !llvm.loop !29

131:                                              ; preds = %50
  br label %132

132:                                              ; preds = %211, %131
  %133 = load i32, ptr %21, align 4, !tbaa !23
  %134 = icmp slt i32 %133, 1024
  br i1 %134, label %135, label %214

135:                                              ; preds = %132
  %136 = load ptr, ptr %14, align 8, !tbaa !16
  %137 = load i32, ptr %20, align 4, !tbaa !23
  %138 = load i32, ptr %21, align 4, !tbaa !23
  %139 = add nsw i32 %137, %138
  %140 = sext i32 %139 to i64
  %141 = getelementptr inbounds float, ptr %136, i64 %140
  %142 = load float, ptr %141, align 4, !tbaa !20
  %143 = load ptr, ptr %19, align 8, !tbaa !16
  %144 = load i32, ptr %20, align 4, !tbaa !23
  %145 = sub nsw i32 31, %144
  %146 = load i32, ptr %21, align 4, !tbaa !23
  %147 = add nsw i32 %145, %146
  %148 = sub nsw i32 %147, 1024
  %149 = sext i32 %148 to i64
  %150 = getelementptr inbounds float, ptr %143, i64 %149
  %151 = load float, ptr %150, align 4, !tbaa !20
  %152 = fneg nsz float %151
  %153 = load float, ptr %22, align 4, !tbaa !20
  %154 = call nsz float @llvm.fmuladd.f32(float %142, float %152, float %153)
  store float %154, ptr %22, align 4, !tbaa !20
  %155 = load ptr, ptr %14, align 8, !tbaa !16
  %156 = load i32, ptr %20, align 4, !tbaa !23
  %157 = load i32, ptr %21, align 4, !tbaa !23
  %158 = add nsw i32 %156, %157
  %159 = add nsw i32 %158, 32
  %160 = sext i32 %159 to i64
  %161 = getelementptr inbounds float, ptr %155, i64 %160
  %162 = load float, ptr %161, align 4, !tbaa !20
  %163 = load ptr, ptr %19, align 8, !tbaa !16
  %164 = load i32, ptr %20, align 4, !tbaa !23
  %165 = load i32, ptr %21, align 4, !tbaa !23
  %166 = add nsw i32 %164, %165
  %167 = sub nsw i32 %166, 1024
  %168 = sext i32 %167 to i64
  %169 = getelementptr inbounds float, ptr %163, i64 %168
  %170 = load float, ptr %169, align 4, !tbaa !20
  %171 = load float, ptr %23, align 4, !tbaa !20
  %172 = call nsz float @llvm.fmuladd.f32(float %162, float %170, float %171)
  store float %172, ptr %23, align 4, !tbaa !20
  %173 = load ptr, ptr %14, align 8, !tbaa !16
  %174 = load i32, ptr %20, align 4, !tbaa !23
  %175 = load i32, ptr %21, align 4, !tbaa !23
  %176 = add nsw i32 %174, %175
  %177 = add nsw i32 %176, 64
  %178 = sext i32 %177 to i64
  %179 = getelementptr inbounds float, ptr %173, i64 %178
  %180 = load float, ptr %179, align 4, !tbaa !20
  %181 = load ptr, ptr %19, align 8, !tbaa !16
  %182 = load i32, ptr %20, align 4, !tbaa !23
  %183 = add nsw i32 32, %182
  %184 = load i32, ptr %21, align 4, !tbaa !23
  %185 = add nsw i32 %183, %184
  %186 = sub nsw i32 %185, 1024
  %187 = sext i32 %186 to i64
  %188 = getelementptr inbounds float, ptr %181, i64 %187
  %189 = load float, ptr %188, align 4, !tbaa !20
  %190 = load float, ptr %24, align 4, !tbaa !20
  %191 = call nsz float @llvm.fmuladd.f32(float %180, float %189, float %190)
  store float %191, ptr %24, align 4, !tbaa !20
  %192 = load ptr, ptr %14, align 8, !tbaa !16
  %193 = load i32, ptr %20, align 4, !tbaa !23
  %194 = load i32, ptr %21, align 4, !tbaa !23
  %195 = add nsw i32 %193, %194
  %196 = add nsw i32 %195, 96
  %197 = sext i32 %196 to i64
  %198 = getelementptr inbounds float, ptr %192, i64 %197
  %199 = load float, ptr %198, align 4, !tbaa !20
  %200 = load ptr, ptr %19, align 8, !tbaa !16
  %201 = load i32, ptr %20, align 4, !tbaa !23
  %202 = sub nsw i32 63, %201
  %203 = load i32, ptr %21, align 4, !tbaa !23
  %204 = add nsw i32 %202, %203
  %205 = sub nsw i32 %204, 1024
  %206 = sext i32 %205 to i64
  %207 = getelementptr inbounds float, ptr %200, i64 %206
  %208 = load float, ptr %207, align 4, !tbaa !20
  %209 = load float, ptr %25, align 4, !tbaa !20
  %210 = call nsz float @llvm.fmuladd.f32(float %199, float %208, float %209)
  store float %210, ptr %25, align 4, !tbaa !20
  br label %211

211:                                              ; preds = %135
  %212 = load i32, ptr %21, align 4, !tbaa !23
  %213 = add nsw i32 %212, 128
  store i32 %213, ptr %21, align 4, !tbaa !23
  br label %132, !llvm.loop !30

214:                                              ; preds = %132
  %215 = load float, ptr %22, align 4, !tbaa !20
  %216 = load float, ptr %17, align 4, !tbaa !20
  %217 = fmul nsz float %215, %216
  %218 = load ptr, ptr %15, align 8, !tbaa !16
  %219 = load i32, ptr %20, align 4, !tbaa !23
  %220 = sext i32 %219 to i64
  %221 = getelementptr inbounds float, ptr %218, i64 %220
  store float %217, ptr %221, align 4, !tbaa !20
  %222 = load float, ptr %23, align 4, !tbaa !20
  %223 = load float, ptr %17, align 4, !tbaa !20
  %224 = fmul nsz float %222, %223
  %225 = load ptr, ptr %15, align 8, !tbaa !16
  %226 = load i32, ptr %20, align 4, !tbaa !23
  %227 = add nsw i32 %226, 32
  %228 = sext i32 %227 to i64
  %229 = getelementptr inbounds float, ptr %225, i64 %228
  store float %224, ptr %229, align 4, !tbaa !20
  %230 = load float, ptr %24, align 4, !tbaa !20
  %231 = load ptr, ptr %13, align 8, !tbaa !16
  %232 = load i32, ptr %20, align 4, !tbaa !23
  %233 = sext i32 %232 to i64
  %234 = getelementptr inbounds float, ptr %231, i64 %233
  store float %230, ptr %234, align 4, !tbaa !20
  %235 = load float, ptr %25, align 4, !tbaa !20
  %236 = load ptr, ptr %13, align 8, !tbaa !16
  %237 = load i32, ptr %20, align 4, !tbaa !23
  %238 = add nsw i32 %237, 32
  %239 = sext i32 %238 to i64
  %240 = getelementptr inbounds float, ptr %236, i64 %239
  store float %235, ptr %240, align 4, !tbaa !20
  call void @llvm.lifetime.end.p0(i64 4, ptr %25) #6
  call void @llvm.lifetime.end.p0(i64 4, ptr %24) #6
  call void @llvm.lifetime.end.p0(i64 4, ptr %23) #6
  call void @llvm.lifetime.end.p0(i64 4, ptr %22) #6
  br label %241

241:                                              ; preds = %214
  %242 = load i32, ptr %20, align 4, !tbaa !23
  %243 = add nsw i32 %242, 1
  store i32 %243, ptr %20, align 4, !tbaa !23
  br label %35, !llvm.loop !31

244:                                              ; preds = %35
  %245 = load ptr, ptr %12, align 8, !tbaa !18
  %246 = load i32, ptr %245, align 4, !tbaa !23
  %247 = sub nsw i32 %246, 64
  %248 = and i32 %247, 1023
  %249 = load ptr, ptr %12, align 8, !tbaa !18
  store i32 %248, ptr %249, align 4, !tbaa !23
  call void @llvm.lifetime.end.p0(i64 4, ptr %21) #6
  call void @llvm.lifetime.end.p0(i64 4, ptr %20) #6
  call void @llvm.lifetime.end.p0(i64 8, ptr %19) #6
  ret void
}