; Function Attrs: nounwind uwtable
define internal void @synth_filter_float_64(ptr noundef %0, ptr noundef %1, ptr noundef captures(none) %2, ptr noundef captures(none) %3, ptr noundef readonly captures(none) %4, ptr noundef writeonly captures(none) %5, ptr noundef %6, float noundef %7, ptr noundef readonly captures(none) %8) #1 {
  %10 = load i32, ptr %2, align 4, !tbaa !12
  %11 = sext i32 %10 to i64
  %12 = getelementptr inbounds float, ptr %1, i64 %11
  tail call void %8(ptr noundef %0, ptr noundef %12, ptr noundef %6, i64 noundef 4) #4
  %13 = load i32, ptr %2, align 4, !tbaa !12
  %14 = icmp slt i32 %13, 1024
  %invariant.gep = getelementptr i8, ptr %12, i64 -4096
  br i1 %14, label %.lr.ph.us.preheader, label %.preheader.preheader

.preheader.preheader:                             ; preds = %9
  %invariant.gep168 = getelementptr i8, ptr %12, i64 -3972
  %invariant.gep172 = getelementptr i8, ptr %12, i64 -3844
  br label %.preheader

.lr.ph.us.preheader:                              ; preds = %9
  %15 = sub nsw i32 1024, %13
  %16 = zext nneg i32 %15 to i64
  %invariant.gep174 = getelementptr i8, ptr %12, i64 124
  %invariant.gep178 = getelementptr i8, ptr %12, i64 252
  %invariant.gep180 = getelementptr i8, ptr %12, i64 -3972
  %invariant.gep184 = getelementptr i8, ptr %12, i64 -3844
  br label %.lr.ph.us

.lr.ph.us:                                        ; preds = %.lr.ph.us.preheader, %._crit_edge.us
  %indvars.iv152 = phi i64 [ 0, %.lr.ph.us.preheader ], [ %indvars.iv.next153, %._crit_edge.us ]
  %17 = getelementptr inbounds nuw float, ptr %3, i64 %indvars.iv152
  %18 = load float, ptr %17, align 4, !tbaa !14
  %19 = or disjoint i64 %indvars.iv152, 32
  %20 = getelementptr inbounds nuw float, ptr %3, i64 %19
  %21 = load float, ptr %20, align 4, !tbaa !14
  %invariant.gep176 = getelementptr inbounds nuw float, ptr %12, i64 %19
  br label %46

._crit_edge.us:                                   ; preds = %.lr.ph116.us, %..preheader_crit_edge.us
  %.193.lcssa.us = phi float [ %53, %..preheader_crit_edge.us ], [ %32, %.lr.ph116.us ]
  %.191.lcssa.us = phi float [ %58, %..preheader_crit_edge.us ], [ %36, %.lr.ph116.us ]
  %.189.lcssa.us = phi float [ %62, %..preheader_crit_edge.us ], [ %40, %.lr.ph116.us ]
  %.1.lcssa.us = phi float [ %66, %..preheader_crit_edge.us ], [ %44, %.lr.ph116.us ]
  %22 = fmul nsz float %7, %.193.lcssa.us
  %23 = getelementptr inbounds nuw float, ptr %5, i64 %indvars.iv152
  store float %22, ptr %23, align 4, !tbaa !14
  %24 = fmul nsz float %7, %.191.lcssa.us
  %25 = getelementptr inbounds nuw float, ptr %5, i64 %19
  store float %24, ptr %25, align 4, !tbaa !14
  store float %.189.lcssa.us, ptr %17, align 4, !tbaa !14
  store float %.1.lcssa.us, ptr %20, align 4, !tbaa !14
  %indvars.iv.next153 = add nuw nsw i64 %indvars.iv152, 1
  %exitcond155.not = icmp eq i64 %indvars.iv.next153, 32
  br i1 %exitcond155.not, label %.split123.us, label %.lr.ph.us, !llvm.loop !20

.lr.ph116.us:                                     ; preds = %.lr.ph116.us.preheader, %.lr.ph116.us
  %indvars.iv148 = phi i64 [ %indvars.iv146, %.lr.ph116.us.preheader ], [ %indvars.iv.next149, %.lr.ph116.us ]
  %.1115.us = phi float [ %66, %.lr.ph116.us.preheader ], [ %44, %.lr.ph116.us ]
  %.189114.us = phi float [ %62, %.lr.ph116.us.preheader ], [ %40, %.lr.ph116.us ]
  %.191113.us = phi float [ %58, %.lr.ph116.us.preheader ], [ %36, %.lr.ph116.us ]
  %.193112.us = phi float [ %53, %.lr.ph116.us.preheader ], [ %32, %.lr.ph116.us ]
  %26 = or disjoint i64 %indvars.iv148, %indvars.iv152
  %27 = getelementptr inbounds nuw float, ptr %4, i64 %26
  %28 = load float, ptr %27, align 4, !tbaa !14
  %29 = sub nuw nsw i64 %indvars.iv148, %indvars.iv152
  %gep181 = getelementptr float, ptr %invariant.gep180, i64 %29
  %30 = load float, ptr %gep181, align 4, !tbaa !14
  %31 = fneg nsz float %30
  %32 = tail call nsz float @llvm.fmuladd.f32(float %28, float %31, float %.193112.us)
  %33 = getelementptr inbounds nuw i8, ptr %27, i64 128
  %34 = load float, ptr %33, align 4, !tbaa !14
  %gep.us = getelementptr float, ptr %invariant.gep, i64 %26
  %35 = load float, ptr %gep.us, align 4, !tbaa !14
  %36 = tail call nsz float @llvm.fmuladd.f32(float %34, float %35, float %.191113.us)
  %37 = getelementptr inbounds nuw i8, ptr %27, i64 256
  %38 = load float, ptr %37, align 4, !tbaa !14
  %gep183 = getelementptr float, ptr %invariant.gep182, i64 %indvars.iv148
  %39 = load float, ptr %gep183, align 4, !tbaa !14
  %40 = tail call nsz float @llvm.fmuladd.f32(float %38, float %39, float %.189114.us)
  %41 = getelementptr inbounds nuw i8, ptr %27, i64 384
  %42 = load float, ptr %41, align 4, !tbaa !14
  %gep185 = getelementptr float, ptr %invariant.gep184, i64 %29
  %43 = load float, ptr %gep185, align 4, !tbaa !14
  %44 = tail call nsz float @llvm.fmuladd.f32(float %42, float %43, float %.1115.us)
  %indvars.iv.next149 = add nuw nsw i64 %indvars.iv148, 128
  %45 = icmp samesign ult i64 %indvars.iv148, 896
  br i1 %45, label %.lr.ph116.us, label %._crit_edge.us, !llvm.loop !21

46:                                               ; preds = %.lr.ph.us, %46
  %indvars.iv146 = phi i64 [ 128, %.lr.ph.us ], [ %indvars.iv.next147, %46 ]
  %indvars.iv142 = phi i64 [ 0, %.lr.ph.us ], [ %indvars.iv.next143, %46 ]
  %.0104.us = phi float [ 0.000000e+00, %.lr.ph.us ], [ %66, %46 ]
  %.088103.us = phi float [ 0.000000e+00, %.lr.ph.us ], [ %62, %46 ]
  %.090102.us = phi float [ %21, %.lr.ph.us ], [ %58, %46 ]
  %.092101.us = phi float [ %18, %.lr.ph.us ], [ %53, %46 ]
  %47 = or disjoint i64 %indvars.iv142, %indvars.iv152
  %48 = getelementptr inbounds nuw float, ptr %4, i64 %47
  %49 = load float, ptr %48, align 4, !tbaa !14
  %50 = sub nsw i64 %indvars.iv142, %indvars.iv152
  %gep175 = getelementptr float, ptr %invariant.gep174, i64 %50
  %51 = load float, ptr %gep175, align 4, !tbaa !14
  %52 = fneg nsz float %51
  %53 = tail call nsz float @llvm.fmuladd.f32(float %49, float %52, float %.092101.us)
  %54 = getelementptr inbounds nuw i8, ptr %48, i64 128
  %55 = load float, ptr %54, align 4, !tbaa !14
  %56 = getelementptr inbounds nuw float, ptr %12, i64 %47
  %57 = load float, ptr %56, align 4, !tbaa !14
  %58 = tail call nsz float @llvm.fmuladd.f32(float %55, float %57, float %.090102.us)
  %59 = getelementptr inbounds nuw i8, ptr %48, i64 256
  %60 = load float, ptr %59, align 4, !tbaa !14
  %gep177 = getelementptr inbounds nuw float, ptr %invariant.gep176, i64 %indvars.iv142
  %61 = load float, ptr %gep177, align 4, !tbaa !14
  %62 = tail call nsz float @llvm.fmuladd.f32(float %60, float %61, float %.088103.us)
  %63 = getelementptr inbounds nuw i8, ptr %48, i64 384
  %64 = load float, ptr %63, align 4, !tbaa !14
  %gep179 = getelementptr float, ptr %invariant.gep178, i64 %50
  %65 = load float, ptr %gep179, align 4, !tbaa !14
  %66 = tail call nsz float @llvm.fmuladd.f32(float %64, float %65, float %.0104.us)
  %indvars.iv.next143 = add nuw nsw i64 %indvars.iv142, 128
  %67 = icmp samesign ult i64 %indvars.iv.next143, %16
  %indvars.iv.next147 = add nuw nsw i64 %indvars.iv146, 128
  br i1 %67, label %46, label %..preheader_crit_edge.us, !llvm.loop !22

..preheader_crit_edge.us:                         ; preds = %46
  %68 = icmp samesign ult i64 %indvars.iv142, 896
  br i1 %68, label %.lr.ph116.us.preheader, label %._crit_edge.us

.lr.ph116.us.preheader:                           ; preds = %..preheader_crit_edge.us
  %invariant.gep182 = getelementptr float, ptr %invariant.gep, i64 %19
  br label %.lr.ph116.us

.preheader:                                       ; preds = %.preheader.preheader, %._crit_edge
  %indvars.iv139 = phi i64 [ 0, %.preheader.preheader ], [ %indvars.iv.next140, %._crit_edge ]
  %69 = getelementptr inbounds nuw float, ptr %3, i64 %indvars.iv139
  %70 = load float, ptr %69, align 4, !tbaa !14
  %71 = or disjoint i64 %indvars.iv139, 32
  %72 = getelementptr inbounds nuw float, ptr %3, i64 %71
  %73 = load float, ptr %72, align 4, !tbaa !14
  %invariant.gep170 = getelementptr float, ptr %invariant.gep, i64 %71
  br label %74

74:                                               ; preds = %.preheader, %74
  %indvars.iv = phi i64 [ 0, %.preheader ], [ %indvars.iv.next, %74 ]
  %.1115 = phi float [ 0.000000e+00, %.preheader ], [ %93, %74 ]
  %.189114 = phi float [ 0.000000e+00, %.preheader ], [ %89, %74 ]
  %.191113 = phi float [ %73, %.preheader ], [ %85, %74 ]
  %.193112 = phi float [ %70, %.preheader ], [ %81, %74 ]
  %75 = or disjoint i64 %indvars.iv, %indvars.iv139
  %76 = getelementptr inbounds nuw float, ptr %4, i64 %75
  %77 = load float, ptr %76, align 4, !tbaa !14
  %78 = sub nsw i64 %indvars.iv, %indvars.iv139
  %gep169 = getelementptr float, ptr %invariant.gep168, i64 %78
  %79 = load float, ptr %gep169, align 4, !tbaa !14
  %80 = fneg nsz float %79
  %81 = tail call nsz float @llvm.fmuladd.f32(float %77, float %80, float %.193112)
  %82 = getelementptr inbounds nuw i8, ptr %76, i64 128
  %83 = load float, ptr %82, align 4, !tbaa !14
  %gep = getelementptr float, ptr %invariant.gep, i64 %75
  %84 = load float, ptr %gep, align 4, !tbaa !14
  %85 = tail call nsz float @llvm.fmuladd.f32(float %83, float %84, float %.191113)
  %86 = getelementptr inbounds nuw i8, ptr %76, i64 256
  %87 = load float, ptr %86, align 4, !tbaa !14
  %gep171 = getelementptr float, ptr %invariant.gep170, i64 %indvars.iv
  %88 = load float, ptr %gep171, align 4, !tbaa !14
  %89 = tail call nsz float @llvm.fmuladd.f32(float %87, float %88, float %.189114)
  %90 = getelementptr inbounds nuw i8, ptr %76, i64 384
  %91 = load float, ptr %90, align 4, !tbaa !14
  %gep173 = getelementptr float, ptr %invariant.gep172, i64 %78
  %92 = load float, ptr %gep173, align 4, !tbaa !14
  %93 = tail call nsz float @llvm.fmuladd.f32(float %91, float %92, float %.1115)
  %indvars.iv.next = add nuw nsw i64 %indvars.iv, 128
  %94 = icmp samesign ult i64 %indvars.iv, 896
  br i1 %94, label %74, label %._crit_edge, !llvm.loop !21

._crit_edge:                                      ; preds = %74
  %95 = fmul nsz float %7, %81
  %96 = getelementptr inbounds nuw float, ptr %5, i64 %indvars.iv139
  store float %95, ptr %96, align 4, !tbaa !14
  %97 = fmul nsz float %7, %85
  %98 = getelementptr inbounds nuw float, ptr %5, i64 %71
  store float %97, ptr %98, align 4, !tbaa !14
  store float %89, ptr %69, align 4, !tbaa !14
  store float %93, ptr %72, align 4, !tbaa !14
  %indvars.iv.next140 = add nuw nsw i64 %indvars.iv139, 1
  %exitcond.not = icmp eq i64 %indvars.iv.next140, 32
  br i1 %exitcond.not, label %.split123.us, label %.preheader, !llvm.loop !20

.split123.us:                                     ; preds = %._crit_edge, %._crit_edge.us
  %99 = add i32 %13, 960
  %100 = and i32 %99, 1023
  store i32 %100, ptr %2, align 4, !tbaa !12
  ret void
}